target datalayout = "e-m:e-p270:32:32-p271:32:32-p272:64:64-i64:64-i128:128-f80:128-n8:16:32:64-S128"
target triple = "x86_64-pc-linux-gnu"

%struct.rb_code_location_struct = type { %struct.rb_code_position_struct, %struct.rb_code_position_struct }
%struct.rb_code_position_struct = type { i32, i32 }
%struct.rb_parser_string = type { i32, ptr, i64, ptr }
%struct.RNode = type { i64, %struct.rb_code_location_struct, i32 }
%struct.RNode_LIST = type { %struct.RNode, ptr, %union.anon.15, ptr }
%union.anon.15 = type { i64 }
%struct.RNode_STR = type { %struct.RNode, ptr }
%struct.RNode_DSTR = type { %struct.RNode, ptr, %union.anon.22, ptr }
%union.anon.22 = type { i64 }
%struct.OnigEncodingTypeST = type { ptr, ptr, i32, i32, ptr, ptr, ptr, ptr, ptr, ptr, ptr, ptr, ptr, ptr, ptr, ptr, ptr, i32, i32 }

@.str.874 = private unnamed_addr constant [62 x i8] c"regexp encoding option '%c' differs from source encoding '%s'\00", align 1

; Function Attrs: inlinehint nounwind sspstrong uwtable
define internal ptr @rb_enc_name(ptr noundef %0) #2 {
  %2 = alloca ptr, align 8
  store ptr %0, ptr %2, align 8, !tbaa !21
  %3 = load ptr, ptr %2, align 8, !tbaa !21
  %4 = getelementptr inbounds nuw %struct.OnigEncodingTypeST, ptr %3, i32 0, i32 1
  %5 = load ptr, ptr %4, align 8, !tbaa !643
  ret ptr %5
}

; Function Attrs: nounwind sspstrong uwtable
define internal ptr @rb_parser_str_get_encoding(ptr noundef %0) #0 {
  %2 = alloca ptr, align 8
  store ptr %0, ptr %2, align 8, !tbaa !14
  %3 = load ptr, ptr %2, align 8, !tbaa !14
  %4 = getelementptr inbounds nuw %struct.rb_parser_string, ptr %3, i32 0, i32 1
  %5 = load ptr, ptr %4, align 8, !tbaa !26
  ret ptr %5
}

; Function Attrs: nounwind sspstrong uwtable
define internal void @reg_fragment_enc_error(ptr noundef %0, ptr noundef %1, i32 noundef %2) #0 {
  %4 = alloca ptr, align 8
  %5 = alloca ptr, align 8
  %6 = alloca i32, align 4
  store ptr %0, ptr %4, align 8, !tbaa !7
  store ptr %1, ptr %5, align 8, !tbaa !14
  store i32 %2, ptr %6, align 4, !tbaa !34
  %7 = load ptr, ptr %4, align 8, !tbaa !7
  %8 = load i32, ptr %6, align 4, !tbaa !34
  %9 = load ptr, ptr %5, align 8, !tbaa !14
  %10 = call ptr @rb_parser_str_get_encoding(ptr noundef %9)
  %11 = call ptr @rb_enc_name(ptr noundef %10)
  call void (ptr, ptr, ptr, ...) @parser_compile_error(ptr noundef %7, ptr noundef null, ptr noundef @.str.874, i32 noundef %8, ptr noundef %11)
  ret void
}

; Function Attrs: inlinehint nounwind sspstrong uwtable
define internal zeroext i1 @nd_type_p(ptr noundef %0, i32 noundef %1) #2 {
  %3 = alloca ptr, align 8
  %4 = alloca i32, align 4
  store ptr %0, ptr %3, align 8, !tbaa !65
  store i32 %1, ptr %4, align 4, !tbaa !34
  %5 = load ptr, ptr %3, align 8, !tbaa !65
  %6 = getelementptr inbounds nuw %struct.RNode, ptr %5, i32 0, i32 0
  %7 = load i64, ptr %6, align 8, !tbaa !110
  %8 = and i64 %7, 32512
  %9 = lshr i64 %8, 8
  %10 = trunc i64 %9 to i32
  %11 = load i32, ptr %4, align 4, !tbaa !34
  %12 = icmp eq i32 %10, %11
  ret i1 %12
}

; Function Attrs: nounwind sspstrong uwtable
define internal void @reg_fragment_setenc(ptr noundef %0, ptr noundef %1, i32 noundef %2) #0 {
  %4 = alloca ptr, align 8
  %5 = alloca ptr, align 8
  %6 = alloca i32, align 4
  %7 = alloca i32, align 4
  store ptr %0, ptr %4, align 8, !tbaa !7
  store ptr %1, ptr %5, align 8, !tbaa !14
  store i32 %2, ptr %6, align 4, !tbaa !34
  call void @llvm.lifetime.start.p0(i64 4, ptr %7) #26
  %8 = load ptr, ptr %4, align 8, !tbaa !7
  %9 = load ptr, ptr %5, align 8, !tbaa !14
  %10 = load i32, ptr %6, align 4, !tbaa !34
  %11 = call i32 @rb_reg_fragment_setenc(ptr noundef %8, ptr noundef %9, i32 noundef %10)
  store i32 %11, ptr %7, align 4, !tbaa !34
  %12 = load i32, ptr %7, align 4, !tbaa !34
  %13 = icmp ne i32 %12, 0
  br i1 %13, label %14, label %18

14:                                               ; preds = %3
  %15 = load ptr, ptr %4, align 8, !tbaa !7
  %16 = load ptr, ptr %5, align 8, !tbaa !14
  %17 = load i32, ptr %7, align 4, !tbaa !34
  call void @reg_fragment_enc_error(ptr noundef %15, ptr noundef %16, i32 noundef %17)
  br label %18

18:                                               ; preds = %14, %3
  call void @llvm.lifetime.end.p0(i64 4, ptr %7) #26
  ret void
}

; Function Attrs: nounwind sspstrong uwtable
define internal void @dregex_fragment_setenc(ptr noundef %0, ptr noundef %1, i32 noundef %2) #0 {
  %4 = alloca ptr, align 8
  %5 = alloca ptr, align 8
  %6 = alloca i32, align 4
  %7 = alloca ptr, align 8
  %8 = alloca ptr, align 8
  store ptr %0, ptr %4, align 8, !tbaa !7
  store ptr %1, ptr %5, align 8, !tbaa !504
  store i32 %2, ptr %6, align 4, !tbaa !34
  %9 = load ptr, ptr %5, align 8, !tbaa !504
  %10 = getelementptr inbounds nuw %struct.RNode_DSTR, ptr %9, i32 0, i32 1
  %11 = load ptr, ptr %10, align 8, !tbaa !499
  %12 = icmp ne ptr %11, null
  br i1 %12, label %13, label %19

13:                                               ; preds = %3
  %14 = load ptr, ptr %4, align 8, !tbaa !7
  %15 = load ptr, ptr %5, align 8, !tbaa !504
  %16 = getelementptr inbounds nuw %struct.RNode_DSTR, ptr %15, i32 0, i32 1
  %17 = load ptr, ptr %16, align 8, !tbaa !499
  %18 = load i32, ptr %6, align 4, !tbaa !34
  call void @reg_fragment_setenc(ptr noundef %14, ptr noundef %17, i32 noundef %18)
  br label %19

19:                                               ; preds = %13, %3
  call void @llvm.lifetime.start.p0(i64 8, ptr %7) #26
  %20 = load ptr, ptr %5, align 8, !tbaa !504
  %21 = getelementptr inbounds nuw %struct.RNode_DSTR, ptr %20, i32 0, i32 3
  %22 = load ptr, ptr %21, align 8, !tbaa !501
  store ptr %22, ptr %7, align 8, !tbaa !306
  br label %23

23:                                               ; preds = %48, %19
  %24 = load ptr, ptr %7, align 8, !tbaa !306
  %25 = icmp ne ptr %24, null
  br i1 %25, label %27, label %26

26:                                               ; preds = %23
  call void @llvm.lifetime.end.p0(i64 8, ptr %7) #26
  br label %52

27:                                               ; preds = %23
  call void @llvm.lifetime.start.p0(i64 8, ptr %8) #26
  %28 = load ptr, ptr %7, align 8, !tbaa !306
  %29 = getelementptr inbounds nuw %struct.RNode_LIST, ptr %28, i32 0, i32 1
  %30 = load ptr, ptr %29, align 8, !tbaa !157
  store ptr %30, ptr %8, align 8, !tbaa !65
  %31 = load ptr, ptr %8, align 8, !tbaa !65
  %32 = call zeroext i1 @nd_type_p(ptr noundef %31, i32 noundef 63)
  br i1 %32, label %33, label %39

33:                                               ; preds = %27
  %34 = load ptr, ptr %4, align 8, !tbaa !7
  %35 = load ptr, ptr %8, align 8, !tbaa !65
  %36 = getelementptr inbounds nuw %struct.RNode_STR, ptr %35, i32 0, i32 1
  %37 = load ptr, ptr %36, align 8, !tbaa !497
  %38 = load i32, ptr %6, align 4, !tbaa !34
  call void @reg_fragment_setenc(ptr noundef %34, ptr noundef %37, i32 noundef %38)
  br label %47

39:                                               ; preds = %27
  %40 = load ptr, ptr %8, align 8, !tbaa !65
  %41 = call zeroext i1 @nd_type_p(ptr noundef %40, i32 noundef 64)
  br i1 %41, label %42, label %46

42:                                               ; preds = %39
  %43 = load ptr, ptr %4, align 8, !tbaa !7
  %44 = load ptr, ptr %8, align 8, !tbaa !65
  %45 = load i32, ptr %6, align 4, !tbaa !34
  call void @dregex_fragment_setenc(ptr noundef %43, ptr noundef %44, i32 noundef %45)
  br label %46

46:                                               ; preds = %42, %39
  br label %47

47:                                               ; preds = %46, %33
  call void @llvm.lifetime.end.p0(i64 8, ptr %8) #26
  br label %48

48:                                               ; preds = %47
  %49 = load ptr, ptr %7, align 8, !tbaa !306
  %50 = getelementptr inbounds nuw %struct.RNode_LIST, ptr %49, i32 0, i32 3
  %51 = load ptr, ptr %50, align 8, !tbaa !159
  store ptr %51, ptr %7, align 8, !tbaa !306
  br label %23, !llvm.loop !798

52:                                               ; preds = %26
  ret void
}